; ModuleID = '54/177.c'
source_filename = "54/177.c"
target datalayout = "e-m:e-p270:32:32-p271:32:32-p272:64:64-i64:64-f80:128-n8:16:32:64-S128"
target triple = "x86_64-pc-linux-gnu"

@.str = private unnamed_addr constant [6 x i8] c"%d %d\00", align 1
@.str.1 = private unnamed_addr constant [3 x i8] c"%d\00", align 1

; Function Attrs: noinline nounwind uwtable
define dso_local void @main() #0 {
  %1 = alloca i32, align 4
  %2 = alloca i32, align 4
  %3 = alloca i32, align 4
  %4 = alloca i32, align 4
  %5 = alloca i32, align 4
  %6 = alloca i32, align 4
  %7 = alloca i32, align 4
  %8 = alloca i32, align 4
  %9 = call i32 (i8*, ...) @__isoc99_scanf(i8* getelementptr inbounds ([6 x i8], [6 x i8]* @.str, i64 0, i64 0), i32* %1, i32* %2)
  store i32 1, i32* %3, align 4
  br label %10

10:                                               ; preds = %51, %0
  %11 = load i32, i32* %3, align 4
  %12 = load i32, i32* %1, align 4
  %13 = mul nsw i32 %11, %12
  %14 = load i32, i32* %2, align 4
  %15 = add nsw i32 %13, %14
  store i32 %15, i32* %6, align 4
  store i32 1, i32* %5, align 4
  store i32 1, i32* %4, align 4
  br label %16

16:                                               ; preds = %43, %10
  %17 = load i32, i32* %5, align 4
  %18 = load i32, i32* %1, align 4
  %19 = sub nsw i32 %18, 1
  %20 = icmp sle i32 %17, %19
  br i1 %20, label %21, label %44

21:                                               ; preds = %16
  %22 = load i32, i32* %6, align 4
  %23 = load i32, i32* %1, align 4
  %24 = mul nsw i32 %22, %23
  %25 = load i32, i32* %1, align 4
  %26 = sub nsw i32 %25, 1
  %27 = srem i32 %24, %26
  store i32 %27, i32* %8, align 4
  %28 = load i32, i32* %8, align 4
  %29 = icmp ne i32 %28, 0
  br i1 %29, label %30, label %31

30:                                               ; preds = %21
  store i32 0, i32* %4, align 4
  br label %44

31:                                               ; preds = %21
  %32 = load i32, i32* %5, align 4
  %33 = add nsw i32 %32, 1
  store i32 %33, i32* %5, align 4
  %34 = load i32, i32* %6, align 4
  %35 = load i32, i32* %1, align 4
  %36 = mul nsw i32 %34, %35
  %37 = load i32, i32* %1, align 4
  %38 = sub nsw i32 %37, 1
  %39 = sdiv i32 %36, %38
  store i32 %39, i32* %7, align 4
  %40 = load i32, i32* %7, align 4
  %41 = load i32, i32* %2, align 4
  %42 = add nsw i32 %40, %41
  store i32 %42, i32* %6, align 4
  br label %43

43:                                               ; preds = %31
  br label %16

44:                                               ; preds = %30, %16
  %45 = load i32, i32* %4, align 4
  %46 = icmp eq i32 %45, 1
  br i1 %46, label %47, label %50

47:                                               ; preds = %44
  %48 = load i32, i32* %6, align 4
  %49 = call i32 (i8*, ...) @printf(i8* getelementptr inbounds ([3 x i8], [3 x i8]* @.str.1, i64 0, i64 0), i32 %48)
  br label %54

50:                                               ; preds = %44
  br label %51

51:                                               ; preds = %50
  %52 = load i32, i32* %3, align 4
  %53 = add nsw i32 %52, 1
  store i32 %53, i32* %3, align 4
  br label %10

54:                                               ; preds = %47
  ret void
}

declare dso_local i32 @__isoc99_scanf(i8*, ...) #1

declare dso_local i32 @printf(i8*, ...) #1


!llvm.module.flags = !{!0}
!llvm.ident = !{!1}

!0 = !{i32 1, !"wchar_size", i32 4}
!1 = !{!"clang version 10.0.0-4ubuntu1 "}
